Certificate:
    Data:
        Version: 3 (0x2)
        Serial Number: 8 (0x8)
        Signature Algorithm: sha1WithRSAEncryption
        Issuer: C=US, ST=CA, L=SanFrancisco, O=Fort-Funston, OU=changeme, CN=everants/name=Everants/emailAddress=lincank@gmail.com
        Validity
            Not Before: Jun  4 03:29:27 2012 GMT
            Not After : Jun  2 03:29:27 2022 GMT
        Subject: C=US, ST=CA, L=SanFrancisco, O=Fort-Funston, OU=EverAnts, CN=ng-clent/name=lincank/emailAddress=lincank@gmail.com
        Subject Public Key Info:
            Public Key Algorithm: rsaEncryption
            RSA Public Key: (1024 bit)
                Modulus (1024 bit):
                    00:c0:01:5e:50:16:55:8f:80:6a:07:0c:17:46:e8:
                    3c:77:21:57:0d:88:92:3a:84:a0:d3:8b:f0:72:ec:
                    91:57:80:4e:a6:ae:ad:c4:ba:2a:1b:2f:df:29:81:
                    3b:b7:cb:8e:73:54:e3:75:59:b7:0b:7f:13:e7:14:
                    6d:21:f9:8b:f0:3f:fe:c8:2c:fc:19:5c:8f:d7:b9:
                    30:70:91:79:6c:81:0d:3a:fe:d0:5a:29:db:7d:2b:
                    34:bf:d2:9e:e9:43:56:32:0e:2d:4e:c7:09:d2:75:
                    9d:88:79:a7:78:ff:64:e0:6b:a6:e6:63:da:8d:57:
                    ad:40:c1:d1:aa:00:75:bd:15
                Exponent: 65537 (0x10001)
        X509v3 extensions:
            X509v3 Basic Constraints: 
                CA:FALSE
            Netscape Comment: 
                Easy-RSA Generated Certificate
            X509v3 Subject Key Identifier: 
                8C:43:54:53:0D:89:6D:DA:51:54:9D:26:98:BB:A7:0B:43:D4:4B:B0
            X509v3 Authority Key Identifier: 
                keyid:1A:D2:2A:38:B0:2F:2C:3D:D0:D5:3B:0E:54:CE:EF:E1:30:80:E6:BE
                DirName:/C=US/ST=CA/L=SanFrancisco/O=Fort-Funston/OU=changeme/CN=everants/name=Everants/emailAddress=lincank@gmail.com
                serial:FC:C8:34:C0:39:95:F9:63

            X509v3 Extended Key Usage: 
                TLS Web Client Authentication
            X509v3 Key Usage: 
                Digital Signature
    Signature Algorithm: sha1WithRSAEncryption
        ac:df:e3:5e:e6:44:c9:01:a0:cc:4d:e3:67:65:37:7f:dc:4e:
        1a:8f:f0:b7:c8:c6:b6:30:ad:c4:1c:25:4d:f4:e3:21:72:99:
        5c:ba:f9:15:ab:62:1a:e0:5d:9a:de:5b:41:40:cd:23:26:67:
        d9:69:50:0e:9b:0d:b3:4b:c7:eb:8c:6f:9b:9a:fb:05:98:ce:
        49:8b:16:fd:22:92:7e:e9:26:c3:a6:f6:dc:6d:7d:c6:b1:fd:
        44:13:26:97:fd:99:64:a5:b0:0a:9d:39:20:cc:e9:4a:c5:b6:
        5a:d3:5f:aa:8c:f3:05:58:38:bd:0b:87:c6:05:02:11:37:1b:
        3d:a7
-----BEGIN CERTIFICATE-----
MIIEGTCCA4KgAwIBAgIBCDANBgkqhkiG9w0BAQUFADCBozELMAkGA1UEBhMCVVMx
CzAJBgNVBAgTAkNBMRUwEwYDVQQHEwxTYW5GcmFuY2lzY28xFTATBgNVBAoTDEZv
cnQtRnVuc3RvbjERMA8GA1UECxMIY2hhbmdlbWUxETAPBgNVBAMTCGV2ZXJhbnRz
MREwDwYDVQQpEwhFdmVyYW50czEgMB4GCSqGSIb3DQEJARYRbGluY2Fua0BnbWFp
bC5jb20wHhcNMTIwNjA0MDMyOTI3WhcNMjIwNjAyMDMyOTI3WjCBojELMAkGA1UE
BhMCVVMxCzAJBgNVBAgTAkNBMRUwEwYDVQQHEwxTYW5GcmFuY2lzY28xFTATBgNV
BAoTDEZvcnQtRnVuc3RvbjERMA8GA1UECxMIRXZlckFudHMxETAPBgNVBAMTCG5n
LWNsZW50MRAwDgYDVQQpEwdsaW5jYW5rMSAwHgYJKoZIhvcNAQkBFhFsaW5jYW5r
QGdtYWlsLmNvbTCBnzANBgkqhkiG9w0BAQEFAAOBjQAwgYkCgYEAwAFeUBZVj4Bq
BwwXRug8dyFXDYiSOoSg04vwcuyRV4BOpq6txLoqGy/fKYE7t8uOc1TjdVm3C38T
5xRtIfmL8D/+yCz8GVyP17kwcJF5bIENOv7QWinbfSs0v9Ke6UNWMg4tTscJ0nWd
iHmneP9k4Gum5mPajVetQMHRqgB1vRUCAwEAAaOCAVowggFWMAkGA1UdEwQCMAAw
LQYJYIZIAYb4QgENBCAWHkVhc3ktUlNBIEdlbmVyYXRlZCBDZXJ0aWZpY2F0ZTAd
BgNVHQ4EFgQUjENUUw2JbdpRVJ0mmLunC0PUS7AwgdgGA1UdIwSB0DCBzYAUGtIq
OLAvLD3Q1TsOVM7v4TCA5r6hgamkgaYwgaMxCzAJBgNVBAYTAlVTMQswCQYDVQQI
EwJDQTEVMBMGA1UEBxMMU2FuRnJhbmNpc2NvMRUwEwYDVQQKEwxGb3J0LUZ1bnN0
b24xETAPBgNVBAsTCGNoYW5nZW1lMREwDwYDVQQDEwhldmVyYW50czERMA8GA1UE
KRMIRXZlcmFudHMxIDAeBgkqhkiG9w0BCQEWEWxpbmNhbmtAZ21haWwuY29tggkA
/Mg0wDmV+WMwEwYDVR0lBAwwCgYIKwYBBQUHAwIwCwYDVR0PBAQDAgeAMA0GCSqG
SIb3DQEBBQUAA4GBAKzf417mRMkBoMxN42dlN3/cThqP8LfIxrYwrcQcJU304yFy
mVy6+RWrYhrgXZreW0FAzSMmZ9lpUA6bDbNLx+uMb5ua+wWYzkmLFv0ikn7pJsOm
9txtfcax/UQTJpf9mWSlsAqdOSDM6UrFtlrTX6qM8wVYOL0Lh8YFAhE3Gz2n
-----END CERTIFICATE-----
