Certificate:
    Data:
        Version: 3 (0x2)
        Serial Number: 6 (0x6)
        Signature Algorithm: sha1WithRSAEncryption
        Issuer: C=US, ST=CA, L=SanFrancisco, O=Fort-Funston, OU=changeme, CN=everants/name=Everants/emailAddress=lincank@gmail.com
        Validity
            Not Before: Apr 22 06:06:44 2012 GMT
            Not After : Apr 20 06:06:44 2022 GMT
        Subject: C=US, ST=CA, L=SanFrancisco, O=Fort-Funston, OU=everants, CN=client3/name=changeme/emailAddress=lincank@gmail.com
        Subject Public Key Info:
            Public Key Algorithm: rsaEncryption
            RSA Public Key: (1024 bit)
                Modulus (1024 bit):
                    00:c1:e0:3a:95:b9:f2:2d:ac:73:b9:68:48:8b:b0:
                    49:7c:cf:7e:e8:c9:22:7e:48:8e:6e:d0:9f:b8:19:
                    05:10:41:69:13:8b:41:9c:a3:99:4b:8e:e2:cb:de:
                    33:92:fd:32:5f:74:97:fc:2a:e6:3e:2b:d6:52:e2:
                    67:86:38:7a:1c:57:76:de:ec:0d:04:ac:46:e8:3c:
                    7d:45:b5:18:3b:0a:21:2e:7f:d7:e8:20:2d:9a:99:
                    52:87:ef:cb:b0:60:70:e9:a0:27:19:cb:fc:22:2c:
                    c3:11:fd:03:06:c4:d5:0a:e5:22:c7:30:f2:a9:5c:
                    67:d3:4d:76:73:17:6e:74:a5
                Exponent: 65537 (0x10001)
        X509v3 extensions:
            X509v3 Basic Constraints: 
                CA:FALSE
            Netscape Comment: 
                Easy-RSA Generated Certificate
            X509v3 Subject Key Identifier: 
                32:67:A2:10:45:CF:A8:4A:45:E8:B3:9D:C6:5A:30:CD:B5:C1:7F:23
            X509v3 Authority Key Identifier: 
                keyid:1A:D2:2A:38:B0:2F:2C:3D:D0:D5:3B:0E:54:CE:EF:E1:30:80:E6:BE
                DirName:/C=US/ST=CA/L=SanFrancisco/O=Fort-Funston/OU=changeme/CN=everants/name=Everants/emailAddress=lincank@gmail.com
                serial:FC:C8:34:C0:39:95:F9:63

            X509v3 Extended Key Usage: 
                TLS Web Client Authentication
            X509v3 Key Usage: 
                Digital Signature
    Signature Algorithm: sha1WithRSAEncryption
        9a:67:40:94:97:29:0c:52:90:d1:d0:8f:01:94:68:37:70:47:
        6a:e3:fc:0c:68:ea:88:c3:48:18:d9:ae:17:a6:b5:86:65:4f:
        82:7c:49:e8:da:0c:60:4b:ee:16:64:1d:4d:dc:31:ea:4f:4e:
        14:00:c4:5b:66:d5:ff:41:a3:8e:3f:7e:7d:71:1f:13:a7:cb:
        b8:97:52:26:d3:1e:7b:57:a1:a2:07:6e:49:ff:f0:f3:8f:60:
        9a:58:68:70:a2:63:4d:a0:af:26:58:10:99:26:c7:70:60:78:
        ad:58:2c:98:df:aa:d2:0f:6d:fc:8c:26:35:bc:a2:f4:95:d0:
        ed:49
-----BEGIN CERTIFICATE-----
MIIEGTCCA4KgAwIBAgIBBjANBgkqhkiG9w0BAQUFADCBozELMAkGA1UEBhMCVVMx
CzAJBgNVBAgTAkNBMRUwEwYDVQQHEwxTYW5GcmFuY2lzY28xFTATBgNVBAoTDEZv
cnQtRnVuc3RvbjERMA8GA1UECxMIY2hhbmdlbWUxETAPBgNVBAMTCGV2ZXJhbnRz
MREwDwYDVQQpEwhFdmVyYW50czEgMB4GCSqGSIb3DQEJARYRbGluY2Fua0BnbWFp
bC5jb20wHhcNMTIwNDIyMDYwNjQ0WhcNMjIwNDIwMDYwNjQ0WjCBojELMAkGA1UE
BhMCVVMxCzAJBgNVBAgTAkNBMRUwEwYDVQQHEwxTYW5GcmFuY2lzY28xFTATBgNV
BAoTDEZvcnQtRnVuc3RvbjERMA8GA1UECxMIZXZlcmFudHMxEDAOBgNVBAMTB2Ns
aWVudDMxETAPBgNVBCkTCGNoYW5nZW1lMSAwHgYJKoZIhvcNAQkBFhFsaW5jYW5r
QGdtYWlsLmNvbTCBnzANBgkqhkiG9w0BAQEFAAOBjQAwgYkCgYEAweA6lbnyLaxz
uWhIi7BJfM9+6MkifkiObtCfuBkFEEFpE4tBnKOZS47iy94zkv0yX3SX/CrmPivW
UuJnhjh6HFd23uwNBKxG6Dx9RbUYOwohLn/X6CAtmplSh+/LsGBw6aAnGcv8IizD
Ef0DBsTVCuUixzDyqVxn0012cxdudKUCAwEAAaOCAVowggFWMAkGA1UdEwQCMAAw
LQYJYIZIAYb4QgENBCAWHkVhc3ktUlNBIEdlbmVyYXRlZCBDZXJ0aWZpY2F0ZTAd
BgNVHQ4EFgQUMmeiEEXPqEpF6LOdxlowzbXBfyMwgdgGA1UdIwSB0DCBzYAUGtIq
OLAvLD3Q1TsOVM7v4TCA5r6hgamkgaYwgaMxCzAJBgNVBAYTAlVTMQswCQYDVQQI
EwJDQTEVMBMGA1UEBxMMU2FuRnJhbmNpc2NvMRUwEwYDVQQKEwxGb3J0LUZ1bnN0
b24xETAPBgNVBAsTCGNoYW5nZW1lMREwDwYDVQQDEwhldmVyYW50czERMA8GA1UE
KRMIRXZlcmFudHMxIDAeBgkqhkiG9w0BCQEWEWxpbmNhbmtAZ21haWwuY29tggkA
/Mg0wDmV+WMwEwYDVR0lBAwwCgYIKwYBBQUHAwIwCwYDVR0PBAQDAgeAMA0GCSqG
SIb3DQEBBQUAA4GBAJpnQJSXKQxSkNHQjwGUaDdwR2rj/Axo6ojDSBjZrhemtYZl
T4J8SejaDGBL7hZkHU3cMepPThQAxFtm1f9Bo44/fn1xHxOny7iXUibTHntXoaIH
bkn/8POPYJpYaHCiY02gryZYEJkmx3BgeK1YLJjfqtIPbfyMJjW8ovSV0O1J
-----END CERTIFICATE-----
