Certificate:
    Data:
        Version: 3 (0x2)
        Serial Number: 4 (0x4)
        Signature Algorithm: sha1WithRSAEncryption
        Issuer: C=US, ST=CA, L=SanFrancisco, O=Fort-Funston, OU=changeme, CN=everants/name=Everants/emailAddress=lincank@gmail.com
        Validity
            Not Before: Apr 17 03:20:26 2012 GMT
            Not After : Apr 15 03:20:26 2022 GMT
        Subject: C=US, ST=CA, L=SanFrancisco, O=Fort-Funston, OU=changeme, CN=clientCK/name=Cank/emailAddress=lincank@gmail.com
        Subject Public Key Info:
            Public Key Algorithm: rsaEncryption
            RSA Public Key: (1024 bit)
                Modulus (1024 bit):
                    00:a7:55:d6:b9:86:2f:94:55:a1:7b:0a:0a:5c:09:
                    d1:c0:a8:c7:5f:a0:1d:a3:3f:66:fe:7f:21:33:f9:
                    c4:ef:4b:00:0f:16:e4:0d:26:95:e6:8a:b5:3d:08:
                    69:39:fd:58:d2:2a:ca:88:dd:26:72:51:47:09:46:
                    fa:f9:75:67:e4:a7:f8:89:b1:e1:45:2d:54:1b:eb:
                    ea:c7:dc:89:af:6d:3a:39:ac:e4:4d:2f:27:80:e5:
                    00:97:01:83:32:ca:45:33:d0:5e:ba:a4:a8:8b:54:
                    27:0c:d4:76:04:e1:2d:e3:cd:93:19:a5:7d:a0:cb:
                    82:9a:dc:f8:8b:c1:b9:8d:49
                Exponent: 65537 (0x10001)
        X509v3 extensions:
            X509v3 Basic Constraints: 
                CA:FALSE
            Netscape Comment: 
                Easy-RSA Generated Certificate
            X509v3 Subject Key Identifier: 
                4B:E1:39:A3:2D:8C:16:FE:F2:9C:CF:48:E5:8B:FF:F2:BB:3A:ED:2A
            X509v3 Authority Key Identifier: 
                keyid:1A:D2:2A:38:B0:2F:2C:3D:D0:D5:3B:0E:54:CE:EF:E1:30:80:E6:BE
                DirName:/C=US/ST=CA/L=SanFrancisco/O=Fort-Funston/OU=changeme/CN=everants/name=Everants/emailAddress=lincank@gmail.com
                serial:FC:C8:34:C0:39:95:F9:63

            X509v3 Extended Key Usage: 
                TLS Web Client Authentication
            X509v3 Key Usage: 
                Digital Signature
    Signature Algorithm: sha1WithRSAEncryption
        81:2c:2b:6d:e1:b5:03:1e:4e:65:1b:b9:ef:ad:f7:b3:f0:c9:
        79:7d:d8:c0:9f:e4:66:ac:3b:19:c1:3b:eb:48:18:42:d2:95:
        23:0b:be:af:91:31:b3:24:cb:4e:7e:ae:7b:09:5d:ac:bd:ac:
        7e:f1:d6:f8:3b:da:d8:cf:34:f3:75:38:24:2d:6a:a8:e1:5b:
        84:d6:30:ae:82:18:48:93:88:c7:0b:9d:97:6a:e8:78:ea:be:
        d6:21:4d:97:82:c1:04:e7:e0:1b:99:c8:e1:8a:59:09:46:e7:
        12:60:41:9b:33:eb:ce:c2:c1:9c:97:1a:e9:98:0f:56:3b:5c:
        42:45
-----BEGIN CERTIFICATE-----
MIIEFjCCA3+gAwIBAgIBBDANBgkqhkiG9w0BAQUFADCBozELMAkGA1UEBhMCVVMx
CzAJBgNVBAgTAkNBMRUwEwYDVQQHEwxTYW5GcmFuY2lzY28xFTATBgNVBAoTDEZv
cnQtRnVuc3RvbjERMA8GA1UECxMIY2hhbmdlbWUxETAPBgNVBAMTCGV2ZXJhbnRz
MREwDwYDVQQpEwhFdmVyYW50czEgMB4GCSqGSIb3DQEJARYRbGluY2Fua0BnbWFp
bC5jb20wHhcNMTIwNDE3MDMyMDI2WhcNMjIwNDE1MDMyMDI2WjCBnzELMAkGA1UE
BhMCVVMxCzAJBgNVBAgTAkNBMRUwEwYDVQQHEwxTYW5GcmFuY2lzY28xFTATBgNV
BAoTDEZvcnQtRnVuc3RvbjERMA8GA1UECxMIY2hhbmdlbWUxETAPBgNVBAMTCGNs
aWVudENLMQ0wCwYDVQQpEwRDYW5rMSAwHgYJKoZIhvcNAQkBFhFsaW5jYW5rQGdt
YWlsLmNvbTCBnzANBgkqhkiG9w0BAQEFAAOBjQAwgYkCgYEAp1XWuYYvlFWhewoK
XAnRwKjHX6Adoz9m/n8hM/nE70sADxbkDSaV5oq1PQhpOf1Y0irKiN0mclFHCUb6
+XVn5Kf4ibHhRS1UG+vqx9yJr206OazkTS8ngOUAlwGDMspFM9BeuqSoi1QnDNR2
BOEt482TGaV9oMuCmtz4i8G5jUkCAwEAAaOCAVowggFWMAkGA1UdEwQCMAAwLQYJ
YIZIAYb4QgENBCAWHkVhc3ktUlNBIEdlbmVyYXRlZCBDZXJ0aWZpY2F0ZTAdBgNV
HQ4EFgQUS+E5oy2MFv7ynM9I5Yv/8rs67SowgdgGA1UdIwSB0DCBzYAUGtIqOLAv
LD3Q1TsOVM7v4TCA5r6hgamkgaYwgaMxCzAJBgNVBAYTAlVTMQswCQYDVQQIEwJD
QTEVMBMGA1UEBxMMU2FuRnJhbmNpc2NvMRUwEwYDVQQKEwxGb3J0LUZ1bnN0b24x
ETAPBgNVBAsTCGNoYW5nZW1lMREwDwYDVQQDEwhldmVyYW50czERMA8GA1UEKRMI
RXZlcmFudHMxIDAeBgkqhkiG9w0BCQEWEWxpbmNhbmtAZ21haWwuY29tggkA/Mg0
wDmV+WMwEwYDVR0lBAwwCgYIKwYBBQUHAwIwCwYDVR0PBAQDAgeAMA0GCSqGSIb3
DQEBBQUAA4GBAIEsK23htQMeTmUbue+t97PwyXl92MCf5GasOxnBO+tIGELSlSML
vq+RMbMky05+rnsJXay9rH7x1vg72tjPNPN1OCQtaqjhW4TWMK6CGEiTiMcLnZdq
6HjqvtYhTZeCwQTn4BuZyOGKWQlG5xJgQZsz687CwZyXGumYD1Y7XEJF
-----END CERTIFICATE-----
