Certificate:
    Data:
        Version: 3 (0x2)
        Serial Number: 3 (0x3)
        Signature Algorithm: sha1WithRSAEncryption
        Issuer: C=US, ST=CA, L=SanFrancisco, O=Fort-Funston, OU=changeme, CN=everants/name=Everants/emailAddress=lincank@gmail.com
        Validity
            Not Before: Apr 17 03:17:20 2012 GMT
            Not After : Apr 15 03:17:20 2022 GMT
        Subject: C=US, ST=CA, L=SanFrancisco, O=Fort-Funston, OU=home, CN=client2/name=client2/emailAddress=lincank@gmail.com
        Subject Public Key Info:
            Public Key Algorithm: rsaEncryption
            RSA Public Key: (1024 bit)
                Modulus (1024 bit):
                    00:c0:01:c1:06:05:fd:97:9d:d0:6f:c6:e4:62:98:
                    a8:36:dc:65:36:dc:01:47:b1:8d:e7:ea:05:b6:05:
                    24:27:d1:cd:52:df:e8:83:2c:ba:bc:6f:41:5e:42:
                    6f:d1:87:5a:52:27:cc:33:ab:60:9d:b3:e9:8c:22:
                    c0:6c:0f:6f:28:21:d7:e3:40:23:5e:c0:d9:c7:2b:
                    d6:b4:f1:58:1f:f9:ff:a9:dd:d9:8b:68:9e:85:df:
                    37:28:34:ca:8e:1c:68:3f:2a:a2:b6:43:e2:d2:22:
                    9b:6d:2a:80:83:93:76:87:80:64:92:5d:f1:1d:82:
                    c0:b3:40:d5:cb:b8:ae:2c:c5
                Exponent: 65537 (0x10001)
        X509v3 extensions:
            X509v3 Basic Constraints: 
                CA:FALSE
            Netscape Comment: 
                Easy-RSA Generated Certificate
            X509v3 Subject Key Identifier: 
                84:DA:64:71:4D:E4:A0:F0:82:5B:9B:4D:28:3D:0A:43:C2:A9:58:66
            X509v3 Authority Key Identifier: 
                keyid:1A:D2:2A:38:B0:2F:2C:3D:D0:D5:3B:0E:54:CE:EF:E1:30:80:E6:BE
                DirName:/C=US/ST=CA/L=SanFrancisco/O=Fort-Funston/OU=changeme/CN=everants/name=Everants/emailAddress=lincank@gmail.com
                serial:FC:C8:34:C0:39:95:F9:63

            X509v3 Extended Key Usage: 
                TLS Web Client Authentication
            X509v3 Key Usage: 
                Digital Signature
    Signature Algorithm: sha1WithRSAEncryption
        93:80:f2:74:62:48:7f:48:42:bf:44:54:65:6f:ce:8f:7f:2a:
        0a:5b:ee:03:21:2a:d3:ab:2c:cb:6d:2a:de:e5:f7:ab:5b:d7:
        c7:39:a1:13:db:35:45:61:97:d8:7e:ba:48:cb:f7:09:54:f2:
        4c:3c:d1:b6:cd:8f:be:c7:ba:8a:bd:d0:6f:a3:e4:6b:1a:90:
        71:7f:b6:ae:a8:eb:26:e9:8f:fa:0c:be:6f:1f:8d:30:af:66:
        72:ba:1c:0e:55:72:2a:98:00:c8:2c:f0:80:32:9b:60:2f:cd:
        66:be:16:89:30:02:9a:20:f4:f9:09:2f:62:5e:e0:e9:f2:02:
        4b:95
-----BEGIN CERTIFICATE-----
MIIEFDCCA32gAwIBAgIBAzANBgkqhkiG9w0BAQUFADCBozELMAkGA1UEBhMCVVMx
CzAJBgNVBAgTAkNBMRUwEwYDVQQHEwxTYW5GcmFuY2lzY28xFTATBgNVBAoTDEZv
cnQtRnVuc3RvbjERMA8GA1UECxMIY2hhbmdlbWUxETAPBgNVBAMTCGV2ZXJhbnRz
MREwDwYDVQQpEwhFdmVyYW50czEgMB4GCSqGSIb3DQEJARYRbGluY2Fua0BnbWFp
bC5jb20wHhcNMTIwNDE3MDMxNzIwWhcNMjIwNDE1MDMxNzIwWjCBnTELMAkGA1UE
BhMCVVMxCzAJBgNVBAgTAkNBMRUwEwYDVQQHEwxTYW5GcmFuY2lzY28xFTATBgNV
BAoTDEZvcnQtRnVuc3RvbjENMAsGA1UECxMEaG9tZTEQMA4GA1UEAxMHY2xpZW50
MjEQMA4GA1UEKRMHY2xpZW50MjEgMB4GCSqGSIb3DQEJARYRbGluY2Fua0BnbWFp
bC5jb20wgZ8wDQYJKoZIhvcNAQEBBQADgY0AMIGJAoGBAMABwQYF/Zed0G/G5GKY
qDbcZTbcAUexjefqBbYFJCfRzVLf6IMsurxvQV5Cb9GHWlInzDOrYJ2z6YwiwGwP
bygh1+NAI17A2ccr1rTxWB/5/6nd2YtonoXfNyg0yo4caD8qorZD4tIim20qgIOT
doeAZJJd8R2CwLNA1cu4rizFAgMBAAGjggFaMIIBVjAJBgNVHRMEAjAAMC0GCWCG
SAGG+EIBDQQgFh5FYXN5LVJTQSBHZW5lcmF0ZWQgQ2VydGlmaWNhdGUwHQYDVR0O
BBYEFITaZHFN5KDwglubTSg9CkPCqVhmMIHYBgNVHSMEgdAwgc2AFBrSKjiwLyw9
0NU7DlTO7+EwgOa+oYGppIGmMIGjMQswCQYDVQQGEwJVUzELMAkGA1UECBMCQ0Ex
FTATBgNVBAcTDFNhbkZyYW5jaXNjbzEVMBMGA1UEChMMRm9ydC1GdW5zdG9uMREw
DwYDVQQLEwhjaGFuZ2VtZTERMA8GA1UEAxMIZXZlcmFudHMxETAPBgNVBCkTCEV2
ZXJhbnRzMSAwHgYJKoZIhvcNAQkBFhFsaW5jYW5rQGdtYWlsLmNvbYIJAPzINMA5
lfljMBMGA1UdJQQMMAoGCCsGAQUFBwMCMAsGA1UdDwQEAwIHgDANBgkqhkiG9w0B
AQUFAAOBgQCTgPJ0Ykh/SEK/RFRlb86PfyoKW+4DISrTqyzLbSre5ferW9fHOaET
2zVFYZfYfrpIy/cJVPJMPNG2zY++x7qKvdBvo+RrGpBxf7auqOsm6Y/6DL5vH40w
r2ZyuhwOVXIqmADILPCAMptgL81mvhaJMAKaIPT5CS9iXuDp8gJLlQ==
-----END CERTIFICATE-----
